(dp0
Vbendova
p1
Vhttps://www.youtube.com/watch?v=-kTeCdMcHjo
p2
sVwitzie
p3
Vpower-tripping bitch
p4
sVholdframe
p5
Vhttp://imgur.com/mdZyh19
p6
sVprincess17b29a
p7
V \U0001f495
p8
sVgo
p9
Vhttp://playgo.to/iwtg/en/
p10
sVemily
p11
Vhttp://themanguide.com/wp-content/uploads/Emily-Ratajkowski-FB3.jpg
p12
sVitsnadya101
p13
Vhuge nerd
p14
sVgriddyspeak
p15
Vwho knows?
p16
sVedward
p17
Vhttp://orig08.deviantart.net/c734/f/2013/167/6/8/edward_snowden___hope_by_richnfamous-d69apwx.png
p18
sVidealist
p19
Vhttps://www.irccloud.com/pastebin/MKcZUoMn/
p20
sVenfj
p21
Vhttp://typelogic.com/enfj.html
p22
sVumc
p23
VUpper Middle Class
p24
sVhbscale
p25
Vhttps://qph.is.quoracdn.net/main-qimg-b733f310e79af36edce4c299707f14cd?convert_to_webp=true
p26
sVwjw
p27
VWow. Just wow.
p28
sVenfp
p29
Vhttp://thesinner.org/wp-content/uploads/2015/02/tinder-profile-taco-duck-elite-daily.jpg
p30
sVchickflock
p31
V"A collection of women aggressively validating each other in a social space for the purposes of sponging social value they, or their arguments wouldn't have alone."
p32
sVapbp
p33
Valpha pounds; beta pounds... The British equivalent of AFBB. (See AFBB.)
p34
sVkyriarchy
p35
Vhttps://en.wikipedia.org/wiki/Kyriarchy
p36
sVmath
p37
Vthe CORRECT short form of mathematics
p38
sVtrp
p39
Vthe red pill subreddit
p40
sVanal
p41
Vhttps://i.imgur.com/xhKhdmN.jpg
p42
sVsaintofpirates
p43
VNot too cool to be defined
p44
sVusdaprime3
p45
Vhttps://usercontent.irccloud-cdn.com/file/WqH4j16z/usdaprime3
p46
sVusdaprime17
p47
Vhttps://usercontent.irccloud-cdn.com/file/cHQQskFT/USDA%20prime%2017
p48
sVusdaprime12
p49
V12 is not a prime number
p50
sVusdaprime13
p51
Vhttps://usercontent.irccloud-cdn.com/file/7tGwPUMv/USDA%20prime%2013
p52
sVusdaprime10
p53
V10 is not a prime number
p54
sVusdaprime11
p55
Vhttps://usercontent.irccloud-cdn.com/file/uPleGuhS/USDA%20prime%2011
p56
sVwmaf
p57
Vwhite male / asian female
p58
sVentj
p59
Vhttps://i.imgur.com/6Zs7Eae.jpg
p60
sVbeyondthelight
p61
Vmagical negro
p62
sVatlasb'sunderwear
p63
Vhttps://i.imgur.com/7rJWJTE.jpg
p64
sVentp
p65
Vhttp://typelogic.com/entp.html
p66
sVplanejane
p67
Vhas a bag of bodily fluids
p68
sVbuartha
p69
Vmost attractive in irc
p70
sVwitz-pole
p71
VThe most classic, universally understood attractiveness scale, percentile-based, Equalising area under the curve, with 10% population per point
p72
sViqlowdata
p73
Vhttp://iqtest.dk/main.swf
p74
sVmbtifunctions
p75
Vhttp://readingontheroof.tumblr.com/post/102702254454/new-myers-briggs-test
p76
sVversion
p77
VPPD Gorilla Pi
p78
sVsystematizer
p79
Vhttp://personality-testing.info/tests/EQSQ.php
p80
sVgriddy
p81
V(_(_)(_|_)(_)_) still RP
p82
sVdoktorbill
p83
VTempy's Thing
p84
sVmissanbae
p85
Vhttps://pbs.twimg.com/profile_images/2403580562/m94b03woyggkfo11osw7.jpeg
p86
sVpua
p87
Vpickup artist
p88
sVfemininity
p89
Vhttp://www.femininebeauty.info/feminine-vs-masculine
p90
sVaerodynamic
p91
Vhttp://youtu.be/mCnJ2_xN2jU
p92
sVhughjackman
p93
Vgheeeeey
p94
sVsupergirl
p95
Vhttps://media.giphy.com/media/s3r36PoyBkn2U/giphy.gif
p96
sVhbd
p97
Vhttp://www.humanbiologicaldiversity.com/
p98
sVstudy
p99
Vhttp://journals.plos.org/plosmedicine/article?id=10.1371/journal.pmed.0020124
p100
sVsjw
p101
Vsocial justice warrior
p102
sVgno
p103
Vgirls night out
p104
sVusdaprime5
p105
Vhttps://usercontent.irccloud-cdn.com/file/45MsUT2Z/usdaprime5
p106
sVusdaprime6
p107
V6 is not a prime number
p108
sVusdaprime7
p109
Vhttps://usercontent.irccloud-cdn.com/file/rEIqKjTs/usdaprime7
p110
sVusdaprime2
p111
Vhttps://usercontent.irccloud-cdn.com/file/sewf9AXq/usdaprime2
p112
sVsweyn
p113
Vresident expert gay of ppd irc
p114
sVnegatron
p115
Vthe worst transformer
p116
sVusdaprime8
p117
V8 is not a prime number
p118
sVusdaprime9
p119
V9 is not a prime number
p120
sVlove
p121
Vhttp://i.imgur.com/2xv66Sm.gifv
p122
sVextro
p123
Vhttps://i.imgur.com/UTdu00L.jpg
p124
sVjulia
p125
Vhttp://physicalculturist.ca/wp-content/uploads/2013/08/julia_vins_on_bench.jpg
p126
sVthegreasypole
p127
VStaunch Minarchist
p128
sVisidewith
p129
Vhttp://www.isidewith.com
p130
sVshaming
p131
Vhttps://exposingfeminism.wordpress.com/shaming-tactics/
p132
sVbra
p133
Vhttps://www.youtube.com/watch?v=1zdDfQrPi5Q&app=desktop
p134
sVkatniss_granger
p135
Vcreepy "nice guy"
p136
sVlottery
p137
Vhttps://sites.middlebury.edu/individualandthesociety/files/2010/09/jackson_lottery.pdf
p138
sVbtl-sn
p139
VNorm 5.5, SD 1.5; more advanced than the fiat-drok scale.
p140
sVdalrymple
p141
Vhttp://imgur.com/a/ALSvz
p142
sV#teamdog
p143
Vhttps://s-media-cache-ak0.pinimg.com/736x/82/75/c0/8275c0ffc6eb634d30af2e151eb847ce.jpg
p144
sVghostrideit
p145
Vhttps://www.youtube.com/watch?v=xLvlGVNInw4
p146
sVmissmaude
p147
Vredheaded stepchild of PPD
p148
sVwomen
p149
Vfemales
p150
sVf
p151
Vf is for female; feelz city bitches
p152
sVmeeb
p153
Vthe real MVP, honorary AMOG, and swinger of the BIGGEST ban hammer
p154
sVsoup
p155
Vhttps://i.imgur.com/HAYgEr3.png
p156
sVmale
p157
Vhttps://usercontent.irccloud-cdn.com/file/nh2Ftql8/Tom_Hiddleston.jpg
p158
sVkatniss'
p159
Vphone http://images.samsung.com/is/image/samsung/uk_GT-E1200ZKABTU_006_Right-angle_black?$TM-Gallery$
p160
sVmagicnegro
p161
Vmurdered by filozof
p162
sVfuck
p163
VLONNY SUPERGIRL!!! https://media.giphy.com/media/vhZTTDmz4rLKo/giphy.gif
p164
sVdunning
p165
VKruger https://en.m.wikipedia.org/wiki/Dunning\u2013Kruger_effect
p166
sVaaron_the_just
p167
VHumblebrag and inbreeder.
p168
sVatlasb
p169
Vhttp://youtu.be/g0m3lfCGgO0
p170
sVdstoo
p171
VRPW wife, speed walking is best, makes roux, has more mason jars than you, 10000 lesbian friends, joins women's organizations to meet women, this is how you be the best person ever. is totally gonna doxx you once you become famous
p172
sVrape
p173
Vlol
p174
sVafn
p175
VAint Fuckin Now
p176
sVcamille
p177
Vowned and operated by M
p178
sVsexymcsexington
p179
Vevil nazi
p180
sVusdaprime29
p181
Vhttps://usercontent.irccloud-cdn.com/file/Tyk8rPfp/USDA%20prime%2029
p182
sV#truluv
p183
Vhttp://i.dailymail.co.uk/i/pix/2013/10/11/article-0-18AC4A2800000578-760_634x422.jpg
p184
sVusdaprime23
p185
Vhttps://usercontent.irccloud-cdn.com/file/icfTupnB/USDA%20prime%2023
p186
sVaot
p187
VChad Thunderkin
p188
sVsolipsism
p189
Vhttp://mattforney.com/eternal-solipsism-female-mind/
p190
sVfj
p191
V"I'm not going to answer that, you're a RPer/racist/bigot/man"
p192
sVcompatibility
p193
Vhttps://s-media-cache-ak0.pinimg.com/736x/c5/95/d7/c595d7e69ab2afa27ffb0a6f66ac125e.jpg
p194
sVlifting
p195
Vhttps://assets.rbl.ms/1888314/980x.jpg
p196
sVsp
p197
Vhot as fuck, property of witzie
p198
sVvolleyball
p199
Vhttp://imgur.com/a/HdinT
p200
sVrobotrock
p201
Vhttp://youtu.be/r2tYJoocSgg
p202
sVverb
p203
Vfor ENTJ usage only
p204
sVsd
p205
Vstandard deviation
p206
sVchillrape
p207
Vit's not traumatic
p208
sVkatebeckinsale
p209
Van 8
p210
sVliarliar
p211
Vhttps://www.youtube.com/watch?v=S8rCy173y7Y
p212
sVwthub
p213
Vwhores to hide; unicorn bride
p214
sVsloot
p215
Vvery sloot, such n-count, so kegels, much {you}, wow
p216
sVjewdance
p217
Vhttps://www.youtube.com/watch?v=HHgxOXEQaFU
p218
sVhbic
p219
Vhead bitch in charge
p220
sVusdaprime
p221
Vhttps://usercontent.irccloud-cdn.com/file/JFnRAj1P/USDA%20Prime
p222
sVdetonators
p223
Vhttps://www.youtube.com/watch?v=Ln4SDOxGz1w
p224
sVttc
p225
Vtrying to conceive
p226
sVhell
p227
Vhttp://thoughtcatalog.com/heidi-priebe/2015/05/the-definition-of-hell-for-each-myers-briggs-personality-type/
p228
sVsperg
p229
VAspergers
p230
sVcastes
p231
Vhttp://unqualified-reservations.blogspot.com/2007/05/castes-of-united-states.html
p232
sVafbb
p233
VAlpha Fucks/Beta Bucks
p234
sVmbtisex
p235
Vhttp://1.bp.blogspot.com/-zeBXR2QWhe8/UyN3p5jG_4I/AAAAAAAAATo/VFiRt6yOBho/s1600/mb-gender.png
p236
sVlesbionic
p237
VPart lesbian, part machine.
p238
sVll
p239
Vlow libido
p240
sVtshtf
p241
Vthe shit hits the fan
p242
sVamagesp
p243
V all men are gross except SP
p244
sVredhead
p245
Vhttp://1.bp.blogspot.com/-MGaW0M9CGa0/ViTvn46MvAI/AAAAAAAAAm4/q89ZTgKgQ5o/s1600/pretty%2Bgirls%2Bwith%2Bbrown%2Bhair%2Band%2Bblue%2Beyes.jpg
p246
sVvents
p247
Vhttp://m.youtube.com/watch?v=vPUZyTXERtw
p248
sVsoccer
p249
Vhttp://gwfsa.org/wp-content/uploads/2014/04/soccer12.jpg
p250
sVenphuego
p251
VIsFuego\U0001f525
p252
sVswpl
p253
Vhttp://stuffwhitepeoplelike.com/full-list-of-stuff-white-people-like/
p254
sVauth
p255
Vhttps://www.irccloud.com/pastebin/uTGw7hWr/PPDIRC%20InstructionsPPDIRC
p256
sVs2hub
p257
VSluts to hide; unicorn bride.
p258
sVboldgumbo
p259
Vbot hates him
p260
sVketchup
p261
Vpleb sauce
p262
sVmlib
p263
Vmy life is bro
p264
sVdrok
p265
Vis literally moloch
p266
sVdontcare
p267
Vhttp://cdn.shopify.com/s/files/1/0175/8784/products/Number6DontCare400w_large.jpg
p268
sVmbti
p269
Vhttp://www.humanmetrics.com/cgi-win/jtypes2.asp
p270
sVbper
p271
Vhttps://i.imgur.com/O325JQe.jpg
p272
sVpistachios
p273
Vthe best nut, by far
p274
sVazombiejesus
p275
Vwalking on water to get the brains
p276
sVnpc:
p277
Vnon-player character
p278
sVgirl
p279
Vhttps://usercontent.irccloud-cdn.com/file/EpBjOj02/littlegirl
p280
sVgfe
p281
Vgirlfriend experience
p282
sVrp
p283
Vred pill
p284
sVricebj
p285
Vis the act of fellatio performed while the giver is kneeling on rice.
p286
sVsmv
p287
Vsexual market value
p288
sVscaperoflands
p289
VHonorary male.
p290
sVwhoosh
p291
Vhttps://media.giphy.com/media/r3brj1bUCDdXq/giphy.gif
p292
sVsmp
p293
Vsexual marketplace
p294
sViifym
p295
Vhttp://iifym.com/iifym-calculator/
p296
sVfto
p297
Vfuture time orientation
p298
sVcarkudo_work
p299
Vcooler than anyone here
p300
sVlmr
p301
Vhttps://i.imgur.com/bExEAcW.jpg
p302
sVmmv
p303
Vmarriage market value
p304
sVrevenge
p305
Vhttp://youtu.be/5Sw61oITuts
p306
sVsmacking
p307
Vhttps://www.youtube.com/watch?v=yCsxdgW_xqY
p308
sVmaths
p309
Vthe term for mathematics for people who took the short bus to school
p310
sVfiresprout
p311
Vhttp://magiccards.info/v14/en/6.html
p312
sVtempy
p313
VDok's 11/10
p314
sVstrawman
p315
Vhttps://en.wikipedia.org/wiki/Straw_man
p316
sValwaysdaddario
p317
Vhttp://ia.media-imdb.com/images/M/MV5BMTU1MTA3OTE2MF5BMl5BanBnXkFtZTcwNTc1NDg2OA@@._V1_SX640_SY720_.jpg
p318
sVfiat
p319
Vhottest male, and most hardcore cucumber hunter
p320
sVarchsgirls
p321
Vhttp://imgur.com/a/22VhB
p322
sVsahm
p323
V https://i.imgur.com/tMZjXNo.jpg
p324
sVhindus
p325
Vbrown nonmuslims
p326
sVbirthday
p327
Vone year closer to the wall
p328
sVpyridine
p329
Vhttps://upload.wikimedia.org/wikipedia/commons/thumb/5/5e/Pyridine-2D-full.svg/300px-Pyridine-2D-full.svg.png
p330
sVwomenduringrape
p331
Vhttps://www.youtube.com/watch?v=we9_CdNPuJg
p332
sVinfp2
p333
Vhttp://4.bp.blogspot.com/_wpQrs7rI8vk/TGCsJqvHgyI/AAAAAAAAARI/y54KzxIUa8o/s1600/INFPJacksonPollockPoster.jpg
p334
sVusdaprimest
p335
Vhttps://i.imgur.com/wknFwzO.jpg
p336
sVmanbutts
p337
Vhttp://elitedaily.com/envision/guys-with-nice-butts-photos/1103164/
p338
sVracism
p339
Vprejudice, discrimination, or antagonism directed against someone of a different race based on the belief that one's own race is superior.
p340
sVmashakos
p341
Vorange bearded black wizard
p342
sVprabhu
p343
Vhttp://www.metromatinee.com/gallery/a2339/large/Samantha%20Ruth%20Prabhu34126.jpg
p344
sVmattesenn
p345
Vhttps://i.imgur.com/lGuvy2k.jpg
p346
sVthegreasyhole
p347
VTheGreasyPole's hunnybunches of smooch
p348
sVscallopkid
p349
Vminecraft pro
p350
sVgayface
p351
Vhttp://40.media.tumblr.com/tumblr_m2plciIjdL1rsvdduo1_250.jpg
p352
sVmanjari
p353
Vhttp://www.indiancinemagallery.com/gallery/manjari-fadnis/Manjari-Fadnis-2012-Photos-(8)1325.jpg
p354
sVfuckwho
p355
VFuck Texas, Fuck Baylor, Fuck Texas Tech, Fuck LSU, Fuck Texas again and fuck LSU again
p356
sVdetonator
p357
Vhttps://www.youtube.com/watch?v=Ln4SDOxGz1w
p358
sVgpc
p359
Vgreenpillchat
p360
sVchad3
p361
Vhttp://cf.girlsaskguys.com/q1691493/e847b7c7-0dc0-46ca-ac87-b429f719977e.jpg
p362
sVchad2
p363
Vhttp://broscience.co/wp-content/uploads/2014/10/jeffaesthetic.jpg
p364
sVcarousel
p365
Vhttps://usercontent.irccloud-cdn.com/file/cFqzj48H/cock%20carousel
p366
sVdogs
p367
Vcreatures far superior in every way to the creatures known as  "cats"
p368
sVwrestling
p369
Vhttps://www.youtube.com/watch?v=F8q5nPmM1WA
p370
sVwhoisntblack
p371
Vdrok
p372
sVmarriage2.0
p373
Vhttp://www.averagemarrieddad.com/marriage-2-0-in-one-graphic/marriage-2-0/
p374
sVgreattips
p375
Vhttp://www.thehotline.org/wp-content/uploads/2013/08/power-and-control-wheel-updated-1011x1024.png
p376
sVusdaprime19
p377
Vhttps://usercontent.irccloud-cdn.com/file/FQGbdQe1/USDA%20prime%2019
p378
sVobjectification
p379
Vhttp://i.imgur.com/c7wZbkq.jpg
p380
sVppdbot
p381
VThe Supreme Being
p382
sVsaintkate
p383
Vhttp://i.imgur.com/g6tbJeW.png
p384
sVmpdg
p385
Vmanic pixie dream girl
p386
sVahmed
p387
Vhttp://cdn1.cdnfast.com/44/d4/44d4441af2aae8161ab5m.jpg
p388
sVsusandeath
p389
V  is between as emotionally intelligent as a toaster and a rhino
p390
sVkino
p391
Vhttps://assets.rbl.ms/1889147/980x.jpg
p392
sVfob
p393
VFresh Off the Boat (aka first gen immigrant)
p394
sVparagraphic
p395
Vlong detailed story of a sexual encounter
p396
sVdttest
p397
V http://personality-testing.info/tests/SD3.php
p398
sVarchitect
p399
Vis a sugary gay man
p400
sVglobalwarming
p401
Vhttp://i.imgur.com/VnY00YP.jpg
p402
sVshittest
p403
Vhttps://assets-auto.rbl.ms/69b6b7dbda951d7bc66a0f11b7cb182143ea0813864166a9481643683c151652
p404
sVspectrum
p405
Vhttp://www.zombietime.com/zomblog/wp-content/images2010/politicalspectrum.jpg
p406
sVestj
p407
Vhttp://typelogic.com/estj.html
p408
sVahog2
p409
Vhttps://imgur.com/k6OTHWw
p410
sVsudandeath
p411
VSouth African white princess
p412
sVestp
p413
Vhttp://typelogic.com/estp.html
p414
sVhybridvigor
p415
Vhttps://en.wikipedia.org/wiki/Heterosis
p416
sVistj
p417
Vhttp://40.media.tumblr.com/df77ad22721a9fd87d2553e02783f4f9/tumblr_mnmn5ivzW81qckp4qo1_1280.png
p418
sVlonny_z
p419
VM O V E
p420
sVsmvtest
p421
Vhttps://heartiste.wordpress.com/dating-market-value-test-for-women/
p422
sVjimmies
p423
Vthey are rustled
p424
sVnormal
p425
Vhttp://imgur.com/Wv1XoCx
p426
sVdafunk
p427
Vhttp://youtu.be/n1ZqN_VFhdo
p428
sVblushingpancake
p429
Vactually a waffle
p430
sVintjmusic
p431
V https://www.youtube.com/watch?v=uahZLfoZ954&spfreload=10
p432
sValpha
p433
Vhttps://assets.rbl.ms/1888323/980x.jpg
p434
sVmadscilove
p435
Vgodless heathen, literally the joker
p436
sVmrp
p437
Vmarried red pill subreddit
p438
sVdog
p439
Vhttp://i.imgur.com/g3Gviwa.jpg
p440
sVsernemesis
p441
VTrue Aryan and white knight for prime aged Yazidis.
p442
sVpandorapanda
p443
V<insert MBTI type> much <3 from drok
p444
sVphysics
p445
V"All science is either physics or stamp collecting" - Ernest Rutherford
p446
sVmra
p447
Vmens rights activist
p448
sVesfp2
p449
Vhttps://s-media-cache-ak0.pinimg.com/736x/4a/64/f4/4a64f40cab7cc9f820ac9928d633dc09.jpg
p450
sVpope
p451
VStill the Antichrist
p452
sVisfj
p453
Vhttp://typelogic.com/isfj.html
p454
sV12days
p455
Vhttps://www.irccloud.com/pastebin/uWBdU5IS/
p456
sVmenz
p457
Vhttps://s-media-cache-ak0.pinimg.com/236x/3d/94/53/3d94539ab52487af905b4df18e7fe34a.jpg
p458
sVjap
p459
Vjewish american princess
p460
sVamwf
p461
VAsian-male white-female couple
p462
sVwombatlie
p463
Vhttps://www.reddit.com/r/PurplePillDebate/comments/2locrp/lets_talk_politics/clxckc5
p464
sVtbp
p465
Vthe blue pill subreddit
p466
sVannakmk
p467
Vvery white
p468
sVde
p469
Vhttp://www.thedarkenlightenment.com/the-dark-enlightenment-by-nick-land/
p470
sVdb
p471
Vdead bedroom
p472
sVbear
p473
Vthe most awesome animal, probably wants food from your picnic (confirmed by weirdlemonade)
p474
sVessexgirl
p475
Va girl
p476
sVthexanman
p477
Vpresumably has xans
p478
sVsfvr
p479
Vslutty flings; virginal rings
p480
sVpoutine
p481
Vhttps://upload.wikimedia.org/wikipedia/commons/4/45/La_Banquise_Poutine.jpg
p482
sVdt
p483
VDark Triad (Machiavellianism, Narcissism, and Psychopathy)
p484
sVchips
p485
Vhttp://www.kettlebrand.com/site/files/kkHero.jpg
p486
sVrelationshipgoals
p487
Vhttps://i.imgur.com/TbiU29C.jpg
p488
sVh
p489
VAtlasB's crazy caveman
p490
sVmotherhood
p491
Vhttps://assets.rbl.ms/1888640/980x.jpg
p492
sVfertility
p493
Vhttp://www.babycentre.co.uk/i/preconception/infertilitygraph.gif
p494
sVmoldbug
p495
Vhttp://moldbuggery.blogspot.com/
p496
sVrmv
p497
Vrelationship market value
p498
sVbiggietrain
p499
Vhttps://www.youtube.com/watch?v=ETfiUYij5UE
p500
sVframe
p501
Vhttp://images.clipartpanda.com/gold-frame-clip-art-gold_frame2.gif
p502
sVfiat-drok
p503
Vthe most accurate and advanced female rating system to date
p504
sVsex
p505
Vplural of second (time)
p506
sVkaijew
p507
VA very fat jew.
p508
sVsea
p509
VSoutheast Asia or Southeast Asian
p510
sVshtf
p511
Vshit hits the fan
p512
sV7da
p513
V7th day adventist
p514
sVstats
p515
Vhttps://stats.quakenet.org/channel/purplepilldebate
p516
sVmarinate
p517
Vlike a dude gets a boner it goes away NBD, but if you get wet and have no change of clothes you just sit there marinating
p518
sVpoopy
p519
V{you} is poopy \U0001f4a9\U0001f4a9\U0001f4a9
p520
sVlifterofthings
p521
Vhas an unreasonably large penis
p522
sVdlv
p523
Vdemonstration of lower value
p524
sVdg69
p525
VNot the most bizarre
p526
sVdragoness
p527
Vloves MBTI the most, also still race traitor (but man she loves MBTI a lot, did I mention?)
p528
sVfluidbonding
p529
V"a natural, mutual romantic attraction between two people that results from a mixture of physical attraction and natural, mutual personality-based rapport. Also, the exchange of vagina and penis juices\u201d
p530
sVahog
p531
Vhttps://assets.rbl.ms/1888462/980x.jpg
p532
sVphysicist
p533
Vhttp://www.smbc-comics.com/?id=2556
p534
sVanteup
p535
Vhttps://www.youtube.com/watch?v=21OH0wlkfbc
p536
sVesfp
p537
Vhttp://typelogic.com/esfp.html
p538
sVazombiekitten
p539
Vhttp://www.cavernsofblood.com/humor/wp-content/uploads/zombie-kitty.jpg
p540
sVlogansrun
p541
Vhttp://ffilms.org/logans-run-1976/
p542
sVbloopsplaining
p543
Vwhen a smug BPer thinks its better than you and needs to tell you how life actually is on account your lack of success it perceives you have
p544
sVweakwords
p545
VHow are you, {you}? :) I just wanted to know, if you were maybe free, if you'd like to go out with me sometime? xD It's totally okay if you're busy! We can go anywhere that you want to go! Trust me, we'll have a lot of fun together :3 Like I said, it's totally cool if you're busy, but, uh, I think this would be cool. Hello? ...Hello? pls respond ...</3
p546
sVretarded
p547
Vhttps://www.youtube.com/watch?v=jYmn3Gwn3oI
p548
sVflocking
p549
V"A collection of people aggressively validating each other in a frenzy within a social space for the purposes of sponging social value they, or their arguments wouldn't have alone."
p550
sVsunhappy
p551
Vhttp://starecat.com/content/wp-content/uploads/tell-me-what-hurts-my-feelings-i-dont-understand-no-one-ever-does-paramedic-footballer.jpg
p552
sVrpw
p553
Vred pill women
p554
sVterpsplaining
p555
Vwhen a smug TRPer calls you a fathambeast because you disagree with him
p556
sVcc
p557
Vhttp://i.imgur.com/rntycYTl.jpg
p558
sVcrisps
p559
Vhttp://www.nutroaster.com.au/media/catalog/product/cache/1/image/9df78eab33525d08d6e5fb8d27136e95/s/o/soya_crisps_sweet_chilli_lime_.jpg
p560
sVhulabutt
p561
Vhttp://i.imgur.com/Cq9blc8.gif
p562
sVgirlgame
p563
Vhttp://i.imgur.com/ifd3WtR.jpg
p564
sVpp
p565
Vpurple pill
p566
sVchad
p567
Vhttp://i.imgur.com/CoeqSKi.jpg
p568
sVbeef
p569
Vhttp://www.costco.com/D%E2%80%99Artagnan-Japanese-Wagyu-Boneless-Ribeye-Roast-A-5-Grade.product.100082950.html
p570
sVsource
p571
Vhttp://journals.plos.org/plosmedicine/article?id=10.1371/journal.pmed.0020124
p572
sVianal
p573
VI am not a lawyer
p574
sVfrensel
p575
VAtlasB's HBD soulmate
p576
sVbuttstuff
p577
Vhttp://cdn.meme.am/instances/58852845.jpg
p578
sVhomosexual
p579
Vhttps://i.imgur.com/FOMnNPS.jpg
p580
sVfilozof
p581
Vnot murderer of BeyondTheLight
p582
sVwhoisblack
p583
Vdrok
p584
sVjohnwaters
p585
Vhttps://www.youtube.com/watch?v=E2YVRu09nAo
p586
sVhardstyledp
p587
Vhttp://youtu.be/lPvdrOA4lGI
p588
sVmlp
p589
Vhttps://i.imgur.com/1TZPX9c.png
p590
sVhoboes
p591
Vhttp://imgur.com/a/7Akqt
p592
sVerror
p593
Vhttps://www.youtube.com/watch?v=nu8-7huFyvo
p594
sVslapping
p595
Vhttps://vimeo.com/21987441
p596
sVsjp
p597
Vhttp://sarahjessicaparkerlookslikeahorse.com
p598
sViq
p599
Vhttp://sifter.org/iqtest/
p600
sVquestioningwoma
p601
Vbeyondthelight's alter ego
p602
sVbodycon
p603
Vhttp://i.imgur.com/z2Evwch.jpg
p604
sVantidepressants
p605
Vhttp://imgur.com/HDxA1jB
p606
sVchasingstatues
p607
V induction schminduction, how do you know anything?
p608
sVdrokspeak
p609
Vwhen words get their true meaning
p610
sVops
p611
Vbig boss, top dog, alpha fucks
p612
sVcheckceremony
p613
Vis when a woman kneels and ceremoniously hands over her paycheck to her man.
p614
sVchad69
p615
Vhttps://akafkaesquelife.files.wordpress.com/2013/01/to-1.jpg
p616
sVdg69sux2
p617
Vhttp://i.imgur.com/9se6Obx.gif?noredirect
p618
sVdhv
p619
VDisplay of Higher Value
p620
sVneoteny
p621
V"Neoteny is the retention, by adults in a species, of traits previously seen only in juveniles"
p622
sVeugenie
p623
Vhttps://s1.yimg.com/bt/api/res/1.2/OsIhoi0k0MKKr7OjLeNd7A--/YXBwaWQ9eW5ld3M7cT04NTt3PTMxMA--/http://media.zenfs.com/en_US/Sports/AP_Tennis/201501172008725254004-p5.jpg
p624
sVatlasb'shouse
p625
Vhttps://i.imgur.com/BZ5fUeE.jpg
p626
sVputin
p627
Vhttps://upload.wikimedia.org/wikipedia/commons/6/6c/Poutine.JPG
p628
sVdaddario2
p629
Vhttps://i.imgur.com/ERweX9G.jpg
p630
sVcanadians
p631
Valso the antichrist
p632
sVtruealpha
p633
Vhttp://kshatriya-anglobitch.blogspot.com/2009/08/rookh-kshatriyas-true-art-of-game.html?m=1
p634
sVevil
p635
Vhttp://www.cracked.com/article_22320_6-weird-ways-star-wars-had-us-rooting-psychopaths.html
p636
sVwhitegirls
p637
Vhttp://i.imgur.com/Y7sq0vG.gifv
p638
sVioi
p639
VIndicator of interest.
p640
sVunicorn
p641
Vhttp://youtu.be/CsGYh8AacgY
p642
sVsn-btl
p643
VNorm 5.5, SD 1.5; more advanced than the fiat-drok scale.
p644
sVdaddario
p645
Vhttp://i.imgur.com/hUe08If.jpg
p646
sVwhores
p647
Vto hide; unicorn bride
p648
sVinfertility
p649
Vhttp://www.babycentre.co.uk/i/preconception/infertilitygraph.gif
p650
sVchickflocking
p651
V"A collection of women aggressively validating each other in a social space for the purposes of sponging social value they, or their arguments wouldn't have alone."
p652
sVlifting2
p653
Vhttps://s-media-cache-ak0.pinimg.com/236x/e9/6d/81/e96d814adc7322b50d7a89dd340bf477.jpg
p654
sVtherulingclass
p655
Vhttps://youtu.be/8dgosa7wkfY
p656
sVchugachgajewjew
p657
Vhas an unreasonably small penis
p658
sVadventists
p659
Vascend up into heaven by riding on floating vegan casseroles
p660
sVangryjack
p661
V"It's not your fault if you're not popular."
p662
sVadbg
p663
VA definite beta guy.
p664
sVoptimusprime
p665
Vhttp://vignette2.wikia.nocookie.net/transformers/images/2/24/Optimus_Prime_DW.jpg/revision/latest?cb=20080921142519&path-prefix=zh-tw
p666
sVistp
p667
Vhttp://typelogic.com/istp.html
p668
sVwitzhouse
p669
Vhttps://i.imgur.com/OyRYQTR.jpg
p670
sVkodiakcakes
p671
Vhttp://www.kodiakcakes.com/mixes/
p672
sVwall
p673
Vhttps://therantsinmypants.files.wordpress.com/2013/03/age-vs-fertility-graph.gif
p674
sVarianagrande
p675
Vfuckubus succubus
p676
sVreadingrainbow
p677
Vhttps://www.youtube.com/watch?v=a0sU1aG7kBM
p678
sVchainsaw
p679
Vhttps://www.google.com/search?q=alexandra+daddario+gif&espv=2&biw=1459&bih=1022&source=lnms&tbm=isch&sa=X&ved=0ahUKEwjEoIuiuLXKAhWIVyYKHXcZBboQ_AUIBigB#imgrc=p3IvPGc7_JgS7M%3A
p680
sVsnark
p681
Vhttp://www.postwarv2.com/snark/monogram_snark.jpg
p682
sVtellmewhentogo
p683
Vhttps://www.youtube.com/watch?v=2GZbaXdK8Js
p684
sVamrita
p685
Vhttps://usercontent.irccloud-cdn.com/file/ZqaYcRRg/Amrita%20Rao
p686
sVamog
p687
VAlpha male of group.
p688
sVtheultimateneg
p689
Vhttps://i.imgur.com/jXiqsEC.png
p690
sVhtfu
p691
Vharden the fuck up
p692
sVrefugees
p693
Vhttps://i.imgur.com/OvV4oEg.png
p694
sVptsd
p695
Vhttps://www.youtube.com/watch?v=5jY6EPf5MHQ
p696
sVxuij
p697
Vseagull
p698
sVselect-scenes-from-true-detective
p699
VP0RN!
p700
sVrpg
p701
VRole-playing game or rocket-propelled grenade
p702
sVprotowife
p703
VThe Brain to Protopill's Brawn
p704
sVscale
p705
Vhttps://usercontent.irccloud-cdn.com/file/AR8FkI98/
p706
sVsudan
p707
Valmost as bad as canada
p708
sV;]
p709
Vhey witzie
p710
sVmasculinity
p711
Vhttp://www.femininebeauty.info/masculinization-feminization-in-men
p712
sVlonny'sblackgf
p713
Vhttp://i.imgur.com/06urfUD.gifv
p714
sVpriapism
p715
Vhttp://kshatriya-anglobitch.blogspot.com/2011/06/are-anglo-american-gay-men-just-priapic.html?m=1
p716
sVbf
p717
Vbeta fux (high beta)
p718
sVblowing
p719
Vmaximum mom
p720
sVscientific
p721
Vhttp://journals.plos.org/plosmedicine/article?id=10.1371/journal.pmed.0020124
p722
sVknockknock
p723
Vhttps://www.youtube.com/watch?v=x5pR0lC589Y
p724
sVprotopill
p725
Vhttp://www.incrediblethings.com/web/the-perfect-female-body-according-to-women-men/ likes what women like (aka teen boy bodies)
p726
sVslut
p727
Vhttps://www.youtube.com/watch?v=NGiE0kqe7N8
p728
sVstem
p729
Vscience, technology, engineering, mathematics
p730
sVbp
p731
Vblue pill
p732
sVhybristophilia
p733
Vhttps://en.wikipedia.org/wiki/Hybristophilia
p734
sVbrahmin
p735
Vhttp://unqualified-reservations.blogspot.com/2007/05/castes-of-united-states.html
p736
sVsrd
p737
Vsubredditdrama
p738
sVwaifu
p739
Vhttp://i.imgur.com/8RLsV.png
p740
sVpowercakes
p741
Vhttp://www.kodiakcakes.com/mixes/
p742
sVsrs
p743
Vshitredditsays
p744
sVdrokisms
p745
Vnonsensical things said by drok
p746
sVppd
p747
Vpurple pill debate
p748
sVmgtow
p749
Vhttp://i.imgur.com/CVWc4Qj.gif
p750
sVbmoc
p751
Vbig man on campus
p752
sVintj
p753
Vhttps://i.imgur.com/LvC5kzA.png
p754
sVverfell
p755
Vrejected by SerNemesis
p756
sVhapa
p757
VHalf Asian
p758
sVintp
p759
Vhttps://i.imgur.com/82cRCgO.png
p760
sVambrosio
p761
Vhttp://i.imgur.com/Nw9snSw.jpg
p762
sVnawalt
p763
Vhttp://i3.mirror.co.uk/incoming/article3277135.ece/ALTERNATES/s1227b/Darren-Donaghey-and-Kate-Cathcart.jpg
p764
sVjews
p765
Vtoo cool to talk to goyim
p766
sVsunnie-
p767
Vafog of the nerds
p768
sVgwtw
p769
Vgone with the wind
p770
sVhey
p771
Vhttp://youtu.be/prgm4eKq6d4
p772
sVatheists
p773
Vvery euphoric
p774
sVcats
p775
VGive them all to AtlasB
p776
sVracist
p777
Vhttp://i.imgur.com/HEOJs.jpg
p778
sVstemwomen
p779
Vhttp://masculinebydesign.blogspot.com/2014/03/discouraging-women-from-entering-stem.html?m=1
p780
sVincel
p781
Vinvoluntary celibate
p782
sVwat
p783
Vhttps://s-media-cache-ak0.pinimg.com/736x/6a/22/ec/6a22ec1372350bb64757502d070d8492.jpg
p784
sVcatholics
p785
Vsignificantly better than muslims; still of the devil
p786
sVdalrymples
p787
Vhttp://imgur.com/a/ALSvz
p788
sVcursedlemon
p789
VCloseted RPer. Less RP than Griddy.
p790
sVrpw_hardcore_mode
p791
V https://i.imgur.com/WcNcgLt.jpg
p792
sVwitz
p793
VSP's girl
p794
sVmisspearl
p795
Vexplain yourself http://www.reddit.com/r/TheBluePill/comments/3o22w3/anyone_else_getting_bored_of_trp_so_i_kind_of/cvtmb7i
p796
sVsda
p797
Vseventh day adventist
p798
sVhl
p799
Vhigh libido
p800
sVhb
p801
V"hot body" rating system for female attractiveness. The ISO standard HB scale is norm 5.5 sd 1.5, also known as the BTL-SN scale.
p802
sVinfj
p803
Vhttp://starecat.com/content/wp-content/uploads/tell-me-what-hurts-my-feelings-i-dont-understand-no-one-ever-does-paramedic-footballer.jpg
p804
sVfries
p805
Vhttp://i.ytimg.com/vi/ETTyVQrUZt8/maxresdefault.jpg
p806
sVdirty
p807
Vhttps://www.youtube.com/watch?v=bzLvZMNHFvU
p808
sVinfp
p809
Vhttp://45.media.tumblr.com/1df6c9e91ac3be605a76dd7fecfdac57/tumblr_meqigxsGM51r5cmqwo2_500.gif
p810
sVaa
p811
VAggresively aggerage
p812
sVsafeneigh
p813
Vprevents horse rape in equine BDSM activities between consenting horses
p814
sVverbaliq
p815
Valliqtests.com/tests/1/10/
p816
sVab
p817
Valpha bux
p818
sVprole
p819
Vproletarian
p820
sVredmanbearpig
p821
Vnext world leader
p822
sVm
p823
Vcamille's owner
p824
sVannoyingelves
p825
Vchinese theta male
p826
sVhamstering
p827
Vhttp://cdn.kinotopic.com/system/paperclip/kinos/pics/4f75/04fb/a531/8005/9f00/01d0/original/4f7504fba53180059f0001d0.gif
p828
sVfatherhood
p829
V https://assets-auto.rbl.ms/2c07f8b684c6131c0a30691ab3aa0ea2485695bd4e30a27c33b62038174ab917
p830
sVthugnecessities
p831
Vhttps://www.youtube.com/watch?v=Rr5MAv32ab0
p832
sVyoga
p833
Vhttp://imgur.com/gallery/Uut2jp0
p834
sVitsnadya
p835
Vrace-traitor whore
p836
sVsnowhappy
p837
Vcutest gender traitor
p838
sVnica
p839
Vdrok's girl, pretty awesome, bot restorer
p840
sVfpua
p841
Vfemale pickup artist
p842
sVpoop
p843
V\U0001f4a9
p844
sVhb10
p845
Vhttp://s3-ap-southeast-2.amazonaws.com/wc-prod-pim/JPEG_1000x1000/ST112BX12_staedtler_pk12_steadt_trad_pncl_erasr_hb_grey.jpg
p846
sVfootball
p847
Vhttp://i.i.cbsi.com/cnwk.1d/i/tim/2013/02/20/football_620x350.jpg
p848
sVchirp
p849
Vfuture import to the bay area
p850
sVmuslims
p851
Veven worse than catholics
p852
sVtruegame
p853
Vhttp://kshatriya-anglobitch.blogspot.com/2009/08/rookh-kshatriyas-true-art-of-game.html?m=1
p854
sVkingkunta
p855
Vhttps://www.youtube.com/watch?v=hRK7PVJFbS8
p856
sVboynextdoor
p857
V https://www.youtube.com/watch?v=_cyuktfkHEY
p858
sVland
p859
Vhttp://www.landwatch.com/
p860
sVnatalia
p861
VEnphuego's hot tamale
p862
sVmbtichart
p863
Vhttps://s-media-cache-ak0.pinimg.com/736x/c5/95/d7/c595d7e69ab2afa27ffb0a6f66ac125e.jpg
p864
sVphebe
p865
V= usdaprime age
p866
sVrealwall
p867
Vthe age when hearing of your friends' engagements makes you want to crack someone over the head with a champagne bottle
p868
sVgorilla
p869
Vhttps://www.youtube.com/watch?v=1eXS0o6r-Wk
p870
sVcpt
p871
Vcolored people time
p872
sVhello
p873
Vhttps://www.youtube.com/watch?v=X3VlOafQR7g&list=PLf--bAs5sSVlu12P5MXJ4wgPxM2EWXD4C
p874
s.